target datalayout = "e-m:e-p270:32:32-p271:32:32-p272:64:64-i64:64-i128:128-f80:128-n8:16:32:64-S128"
target triple = "x86_64-pc-linux-gnu"

%"class.pxrInternal_v0_24__pxrReserved__::TfStaticData" = type { %"struct.std::atomic" }
%"struct.std::atomic" = type { %"struct.std::__atomic_base" }
%"struct.std::__atomic_base" = type { ptr }
%"class.pxrInternal_v0_24__pxrReserved__::HdDataSourceLocator" = type { %"class.pxrInternal_v0_24__pxrReserved__::TfSmallVector.0" }
%"class.pxrInternal_v0_24__pxrReserved__::TfSmallVector.0" = type { %"union.pxrInternal_v0_24__pxrReserved__::TfSmallVectorBase::_DataUnion.1", i32, i32 }
%"union.pxrInternal_v0_24__pxrReserved__::TfSmallVectorBase::_DataUnion.1" = type { ptr, [40 x i8] }
%"struct.(anonymous namespace)::_tokens_PrivateStaticTokenType" = type { %"class.pxrInternal_v0_24__pxrReserved__::TfToken", %"class.pxrInternal_v0_24__pxrReserved__::TfToken", %"class.pxrInternal_v0_24__pxrReserved__::TfToken", %"class.pxrInternal_v0_24__pxrReserved__::TfToken", %"class.pxrInternal_v0_24__pxrReserved__::TfToken", %"class.std::vector" }
%"class.pxrInternal_v0_24__pxrReserved__::TfToken" = type { %"class.pxrInternal_v0_24__pxrReserved__::TfPointerAndBits" }
%"class.pxrInternal_v0_24__pxrReserved__::TfPointerAndBits" = type { ptr }
%"class.std::vector" = type { %"struct.std::_Vector_base" }
%"struct.std::_Vector_base" = type { %"struct.std::_Vector_base<pxrInternal_v0_24__pxrReserved__::TfToken, std::allocator<pxrInternal_v0_24__pxrReserved__::TfToken>>::_Vector_impl" }
%"struct.std::_Vector_base<pxrInternal_v0_24__pxrReserved__::TfToken, std::allocator<pxrInternal_v0_24__pxrReserved__::TfToken>>::_Vector_impl" = type { %"struct.std::_Vector_base<pxrInternal_v0_24__pxrReserved__::TfToken, std::allocator<pxrInternal_v0_24__pxrReserved__::TfToken>>::_Vector_impl_data" }
%"struct.std::_Vector_base<pxrInternal_v0_24__pxrReserved__::TfToken, std::allocator<pxrInternal_v0_24__pxrReserved__::TfToken>>::_Vector_impl_data" = type { ptr, ptr, ptr }

@_ZL7_tokens = internal global %"class.pxrInternal_v0_24__pxrReserved__::TfStaticData" zeroinitializer, align 8

; Function Attrs: mustprogress uwtable
define dso_local void @_Z37_ConvertLocatorSetToDirtyBitsForTacosRKN32pxrInternal_v0_24__pxrReserved__22HdDataSourceLocatorSetEPj(ptr noundef nonnull align 8 dereferenceable(456) %0, ptr noundef %1) #4 personality ptr @__gxx_personality_v0 {
  %3 = alloca ptr, align 8
  %4 = alloca ptr, align 8
  %5 = alloca %"class.pxrInternal_v0_24__pxrReserved__::HdDataSourceLocator", align 8
  %6 = alloca ptr, align 8
  %7 = alloca i32, align 4
  %8 = alloca %"class.pxrInternal_v0_24__pxrReserved__::HdDataSourceLocator", align 8
  %9 = alloca %"class.pxrInternal_v0_24__pxrReserved__::HdDataSourceLocator", align 8
  store ptr %0, ptr %3, align 8
  store ptr %1, ptr %4, align 8
  %10 = load ptr, ptr %3, align 8
  %11 = call noundef ptr @_ZNK32pxrInternal_v0_24__pxrReserved__12TfStaticDataIN12_GLOBAL__N_130_tokens_PrivateStaticTokenTypeENS_27Tf_StaticDataDefaultFactoryIS2_EEEptEv(ptr noundef nonnull align 8 dereferenceable(8) @_ZL7_tokens)
  %12 = getelementptr inbounds nuw %"struct.(anonymous namespace)::_tokens_PrivateStaticTokenType", ptr %11, i32 0, i32 0
  %13 = call noundef ptr @_ZNK32pxrInternal_v0_24__pxrReserved__12TfStaticDataIN12_GLOBAL__N_130_tokens_PrivateStaticTokenTypeENS_27Tf_StaticDataDefaultFactoryIS2_EEEptEv(ptr noundef nonnull align 8 dereferenceable(8) @_ZL7_tokens)
  %14 = getelementptr inbounds nuw %"struct.(anonymous namespace)::_tokens_PrivateStaticTokenType", ptr %13, i32 0, i32 2
  call void @_ZN32pxrInternal_v0_24__pxrReserved__19HdDataSourceLocatorC1ERKNS_7TfTokenES3_(ptr noundef nonnull align 8 dereferenceable(56) %5, ptr noundef nonnull align 8 dereferenceable(8) %12, ptr noundef nonnull align 8 dereferenceable(8) %14)
  %15 = invoke noundef zeroext i1 @_ZNK32pxrInternal_v0_24__pxrReserved__22HdDataSourceLocatorSet10IntersectsERKNS_19HdDataSourceLocatorE(ptr noundef nonnull align 8 dereferenceable(456) %10, ptr noundef nonnull align 8 dereferenceable(56) %5)
          to label %16 unwind label %21

16:                                               ; preds = %2
  call void @_ZN32pxrInternal_v0_24__pxrReserved__19HdDataSourceLocatorD2Ev(ptr noundef nonnull align 8 dereferenceable(56) %5) #3
  br i1 %15, label %17, label %25

17:                                               ; preds = %16
  %18 = load ptr, ptr %4, align 8
  %19 = load i32, ptr %18, align 4
  %20 = or i32 %19, 1
  store i32 %20, ptr %18, align 4
  br label %25

21:                                               ; preds = %2
  %22 = landingpad { ptr, i32 }
          cleanup
  %23 = extractvalue { ptr, i32 } %22, 0
  store ptr %23, ptr %6, align 8
  %24 = extractvalue { ptr, i32 } %22, 1
  store i32 %24, ptr %7, align 4
  call void @_ZN32pxrInternal_v0_24__pxrReserved__19HdDataSourceLocatorD2Ev(ptr noundef nonnull align 8 dereferenceable(56) %5) #3
  br label %58

25:                                               ; preds = %17, %16
  %26 = load ptr, ptr %3, align 8
  %27 = call noundef ptr @_ZNK32pxrInternal_v0_24__pxrReserved__12TfStaticDataIN12_GLOBAL__N_130_tokens_PrivateStaticTokenTypeENS_27Tf_StaticDataDefaultFactoryIS2_EEEptEv(ptr noundef nonnull align 8 dereferenceable(8) @_ZL7_tokens)
  %28 = getelementptr inbounds nuw %"struct.(anonymous namespace)::_tokens_PrivateStaticTokenType", ptr %27, i32 0, i32 0
  %29 = call noundef ptr @_ZNK32pxrInternal_v0_24__pxrReserved__12TfStaticDataIN12_GLOBAL__N_130_tokens_PrivateStaticTokenTypeENS_27Tf_StaticDataDefaultFactoryIS2_EEEptEv(ptr noundef nonnull align 8 dereferenceable(8) @_ZL7_tokens)
  %30 = getelementptr inbounds nuw %"struct.(anonymous namespace)::_tokens_PrivateStaticTokenType", ptr %29, i32 0, i32 3
  call void @_ZN32pxrInternal_v0_24__pxrReserved__19HdDataSourceLocatorC1ERKNS_7TfTokenES3_(ptr noundef nonnull align 8 dereferenceable(56) %8, ptr noundef nonnull align 8 dereferenceable(8) %28, ptr noundef nonnull align 8 dereferenceable(8) %30)
  %31 = invoke noundef zeroext i1 @_ZNK32pxrInternal_v0_24__pxrReserved__22HdDataSourceLocatorSet10IntersectsERKNS_19HdDataSourceLocatorE(ptr noundef nonnull align 8 dereferenceable(456) %26, ptr noundef nonnull align 8 dereferenceable(56) %8)
          to label %32 unwind label %37

32:                                               ; preds = %25
  call void @_ZN32pxrInternal_v0_24__pxrReserved__19HdDataSourceLocatorD2Ev(ptr noundef nonnull align 8 dereferenceable(56) %8) #3
  br i1 %31, label %33, label %41

33:                                               ; preds = %32
  %34 = load ptr, ptr %4, align 8
  %35 = load i32, ptr %34, align 4
  %36 = or i32 %35, 2
  store i32 %36, ptr %34, align 4
  br label %41

37:                                               ; preds = %25
  %38 = landingpad { ptr, i32 }
          cleanup
  %39 = extractvalue { ptr, i32 } %38, 0
  store ptr %39, ptr %6, align 8
  %40 = extractvalue { ptr, i32 } %38, 1
  store i32 %40, ptr %7, align 4
  call void @_ZN32pxrInternal_v0_24__pxrReserved__19HdDataSourceLocatorD2Ev(ptr noundef nonnull align 8 dereferenceable(56) %8) #3
  br label %58

41:                                               ; preds = %33, %32
  %42 = load ptr, ptr %3, align 8
  %43 = call noundef ptr @_ZNK32pxrInternal_v0_24__pxrReserved__12TfStaticDataIN12_GLOBAL__N_130_tokens_PrivateStaticTokenTypeENS_27Tf_StaticDataDefaultFactoryIS2_EEEptEv(ptr noundef nonnull align 8 dereferenceable(8) @_ZL7_tokens)
  %44 = getelementptr inbounds nuw %"struct.(anonymous namespace)::_tokens_PrivateStaticTokenType", ptr %43, i32 0, i32 0
  %45 = call noundef ptr @_ZNK32pxrInternal_v0_24__pxrReserved__12TfStaticDataIN12_GLOBAL__N_130_tokens_PrivateStaticTokenTypeENS_27Tf_StaticDataDefaultFactoryIS2_EEEptEv(ptr noundef nonnull align 8 dereferenceable(8) @_ZL7_tokens)
  %46 = getelementptr inbounds nuw %"struct.(anonymous namespace)::_tokens_PrivateStaticTokenType", ptr %45, i32 0, i32 4
  call void @_ZN32pxrInternal_v0_24__pxrReserved__19HdDataSourceLocatorC1ERKNS_7TfTokenES3_(ptr noundef nonnull align 8 dereferenceable(56) %9, ptr noundef nonnull align 8 dereferenceable(8) %44, ptr noundef nonnull align 8 dereferenceable(8) %46)
  %47 = invoke noundef zeroext i1 @_ZNK32pxrInternal_v0_24__pxrReserved__22HdDataSourceLocatorSet10IntersectsERKNS_19HdDataSourceLocatorE(ptr noundef nonnull align 8 dereferenceable(456) %42, ptr noundef nonnull align 8 dereferenceable(56) %9)
          to label %48 unwind label %53

48:                                               ; preds = %41
  call void @_ZN32pxrInternal_v0_24__pxrReserved__19HdDataSourceLocatorD2Ev(ptr noundef nonnull align 8 dereferenceable(56) %9) #3
  br i1 %47, label %49, label %57

49:                                               ; preds = %48
  %50 = load ptr, ptr %4, align 8
  %51 = load i32, ptr %50, align 4
  %52 = or i32 %51, 4
  store i32 %52, ptr %50, align 4
  br label %57

53:                                               ; preds = %41
  %54 = landingpad { ptr, i32 }
          cleanup
  %55 = extractvalue { ptr, i32 } %54, 0
  store ptr %55, ptr %6, align 8
  %56 = extractvalue { ptr, i32 } %54, 1
  store i32 %56, ptr %7, align 4
  call void @_ZN32pxrInternal_v0_24__pxrReserved__19HdDataSourceLocatorD2Ev(ptr noundef nonnull align 8 dereferenceable(56) %9) #3
  br label %58

57:                                               ; preds = %49, %48
  ret void

58:                                               ; preds = %53, %37, %21
  %59 = load ptr, ptr %6, align 8
  %60 = load i32, ptr %7, align 4
  %61 = insertvalue { ptr, i32 } poison, ptr %59, 0
  %62 = insertvalue { ptr, i32 } %61, i32 %60, 1
  resume { ptr, i32 } %62
}