; Function Attrs: mustprogress uwtable
define dso_local void @_Z37_ConvertLocatorSetToDirtyBitsForTacosRKN32pxrInternal_v0_24__pxrReserved__22HdDataSourceLocatorSetEPj(ptr noundef nonnull align 8 dereferenceable(456) %0, ptr noundef captures(none) %1) #3 personality ptr @__gxx_personality_v0 {
  %3 = alloca %"class.pxrInternal_v0_24__pxrReserved__::HdDataSourceLocator", align 8
  %4 = alloca %"class.pxrInternal_v0_24__pxrReserved__::HdDataSourceLocator", align 8
  %5 = alloca %"class.pxrInternal_v0_24__pxrReserved__::HdDataSourceLocator", align 8
  %6 = tail call fastcc noundef ptr @_ZNK32pxrInternal_v0_24__pxrReserved__12TfStaticDataIN12_GLOBAL__N_130_tokens_PrivateStaticTokenTypeENS_27Tf_StaticDataDefaultFactoryIS2_EEEptEv()
  %7 = tail call fastcc noundef ptr @_ZNK32pxrInternal_v0_24__pxrReserved__12TfStaticDataIN12_GLOBAL__N_130_tokens_PrivateStaticTokenTypeENS_27Tf_StaticDataDefaultFactoryIS2_EEEptEv()
  %8 = getelementptr inbounds nuw i8, ptr %7, i64 16
  call void @_ZN32pxrInternal_v0_24__pxrReserved__19HdDataSourceLocatorC1ERKNS_7TfTokenES3_(ptr noundef nonnull align 8 dereferenceable(56) %3, ptr noundef nonnull align 8 dereferenceable(8) %6, ptr noundef nonnull align 8 dereferenceable(8) %8)
  %9 = invoke noundef zeroext i1 @_ZNK32pxrInternal_v0_24__pxrReserved__22HdDataSourceLocatorSet10IntersectsERKNS_19HdDataSourceLocatorE(ptr noundef nonnull align 8 dereferenceable(456) %0, ptr noundef nonnull align 8 dereferenceable(56) %3)
          to label %10 unwind label %34

10:                                               ; preds = %2
  %11 = getelementptr inbounds nuw i8, ptr %3, i64 52
  %12 = load i32, ptr %11, align 4
  %13 = icmp ult i32 %12, 7
  %14 = load ptr, ptr %3, align 8
  %spec.select.i.i.i.i.i = select i1 %13, ptr %3, ptr %14
  %15 = getelementptr inbounds nuw i8, ptr %3, i64 48
  %16 = load i32, ptr %15, align 8
  %17 = zext i32 %16 to i64
  %18 = getelementptr inbounds nuw %"class.pxrInternal_v0_24__pxrReserved__::TfToken", ptr %spec.select.i.i.i.i.i, i64 %17
  %.not7.i.i.i = icmp eq i32 %16, 0
  br i1 %.not7.i.i.i, label %_ZN32pxrInternal_v0_24__pxrReserved__13TfSmallVectorINS_7TfTokenELj6EE9_DestructEv.exit.i.i, label %.lr.ph.i.i.i

.lr.ph.i.i.i:                                     ; preds = %10, %_ZN32pxrInternal_v0_24__pxrReserved__7TfTokenD2Ev.exit.i.i.i
  %.08.i.i.i = phi ptr [ %26, %_ZN32pxrInternal_v0_24__pxrReserved__7TfTokenD2Ev.exit.i.i.i ], [ %spec.select.i.i.i.i.i, %10 ]
  %19 = load ptr, ptr %.08.i.i.i, align 8
  %20 = ptrtoint ptr %19 to i64
  %21 = and i64 %20, 7
  %.not.i.i.i.i.i = icmp eq i64 %21, 0
  br i1 %.not.i.i.i.i.i, label %_ZN32pxrInternal_v0_24__pxrReserved__7TfTokenD2Ev.exit.i.i.i, label %22

22:                                               ; preds = %.lr.ph.i.i.i
  %23 = and i64 %20, -8
  %24 = inttoptr i64 %23 to ptr
  %25 = atomicrmw sub ptr %24, i32 2 release, align 4
  br label %_ZN32pxrInternal_v0_24__pxrReserved__7TfTokenD2Ev.exit.i.i.i

_ZN32pxrInternal_v0_24__pxrReserved__7TfTokenD2Ev.exit.i.i.i: ; preds = %22, %.lr.ph.i.i.i
  %26 = getelementptr inbounds nuw i8, ptr %.08.i.i.i, i64 8
  %.not.i.i.i = icmp eq ptr %26, %18
  br i1 %.not.i.i.i, label %_ZN32pxrInternal_v0_24__pxrReserved__13TfSmallVectorINS_7TfTokenELj6EE9_DestructEv.exit.loopexit.i.i, label %.lr.ph.i.i.i, !llvm.loop !5

_ZN32pxrInternal_v0_24__pxrReserved__13TfSmallVectorINS_7TfTokenELj6EE9_DestructEv.exit.loopexit.i.i: ; preds = %_ZN32pxrInternal_v0_24__pxrReserved__7TfTokenD2Ev.exit.i.i.i
  %.pre.i.i = load i32, ptr %11, align 4
  br label %_ZN32pxrInternal_v0_24__pxrReserved__13TfSmallVectorINS_7TfTokenELj6EE9_DestructEv.exit.i.i

_ZN32pxrInternal_v0_24__pxrReserved__13TfSmallVectorINS_7TfTokenELj6EE9_DestructEv.exit.i.i: ; preds = %_ZN32pxrInternal_v0_24__pxrReserved__13TfSmallVectorINS_7TfTokenELj6EE9_DestructEv.exit.loopexit.i.i, %10
  %27 = phi i32 [ %.pre.i.i, %_ZN32pxrInternal_v0_24__pxrReserved__13TfSmallVectorINS_7TfTokenELj6EE9_DestructEv.exit.loopexit.i.i ], [ %12, %10 ]
  %28 = icmp ult i32 %27, 7
  br i1 %28, label %_ZN32pxrInternal_v0_24__pxrReserved__19HdDataSourceLocatorD2Ev.exit, label %29

29:                                               ; preds = %_ZN32pxrInternal_v0_24__pxrReserved__13TfSmallVectorINS_7TfTokenELj6EE9_DestructEv.exit.i.i
  %30 = load ptr, ptr %3, align 8
  call void @free(ptr noundef %30) #14
  br label %_ZN32pxrInternal_v0_24__pxrReserved__19HdDataSourceLocatorD2Ev.exit

_ZN32pxrInternal_v0_24__pxrReserved__19HdDataSourceLocatorD2Ev.exit: ; preds = %_ZN32pxrInternal_v0_24__pxrReserved__13TfSmallVectorINS_7TfTokenELj6EE9_DestructEv.exit.i.i, %29
  br i1 %9, label %31, label %36

31:                                               ; preds = %_ZN32pxrInternal_v0_24__pxrReserved__19HdDataSourceLocatorD2Ev.exit
  %32 = load i32, ptr %1, align 4
  %33 = or i32 %32, 1
  store i32 %33, ptr %1, align 4
  br label %36

34:                                               ; preds = %2
  %35 = landingpad { ptr, i32 }
          cleanup
  br label %99

36:                                               ; preds = %31, %_ZN32pxrInternal_v0_24__pxrReserved__19HdDataSourceLocatorD2Ev.exit
  %37 = call fastcc noundef ptr @_ZNK32pxrInternal_v0_24__pxrReserved__12TfStaticDataIN12_GLOBAL__N_130_tokens_PrivateStaticTokenTypeENS_27Tf_StaticDataDefaultFactoryIS2_EEEptEv()
  %38 = call fastcc noundef ptr @_ZNK32pxrInternal_v0_24__pxrReserved__12TfStaticDataIN12_GLOBAL__N_130_tokens_PrivateStaticTokenTypeENS_27Tf_StaticDataDefaultFactoryIS2_EEEptEv()
  %39 = getelementptr inbounds nuw i8, ptr %38, i64 24
  call void @_ZN32pxrInternal_v0_24__pxrReserved__19HdDataSourceLocatorC1ERKNS_7TfTokenES3_(ptr noundef nonnull align 8 dereferenceable(56) %4, ptr noundef nonnull align 8 dereferenceable(8) %37, ptr noundef nonnull align 8 dereferenceable(8) %39)
  %40 = invoke noundef zeroext i1 @_ZNK32pxrInternal_v0_24__pxrReserved__22HdDataSourceLocatorSet10IntersectsERKNS_19HdDataSourceLocatorE(ptr noundef nonnull align 8 dereferenceable(456) %0, ptr noundef nonnull align 8 dereferenceable(56) %4)
          to label %41 unwind label %65

41:                                               ; preds = %36
  %42 = getelementptr inbounds nuw i8, ptr %4, i64 52
  %43 = load i32, ptr %42, align 4
  %44 = icmp ult i32 %43, 7
  %45 = load ptr, ptr %4, align 8
  %spec.select.i.i.i.i.i9 = select i1 %44, ptr %4, ptr %45
  %46 = getelementptr inbounds nuw i8, ptr %4, i64 48
  %47 = load i32, ptr %46, align 8
  %48 = zext i32 %47 to i64
  %49 = getelementptr inbounds nuw %"class.pxrInternal_v0_24__pxrReserved__::TfToken", ptr %spec.select.i.i.i.i.i9, i64 %48
  %.not7.i.i.i10 = icmp eq i32 %47, 0
  br i1 %.not7.i.i.i10, label %_ZN32pxrInternal_v0_24__pxrReserved__13TfSmallVectorINS_7TfTokenELj6EE9_DestructEv.exit.i.i18, label %.lr.ph.i.i.i11

.lr.ph.i.i.i11:                                   ; preds = %41, %_ZN32pxrInternal_v0_24__pxrReserved__7TfTokenD2Ev.exit.i.i.i14
  %.08.i.i.i12 = phi ptr [ %57, %_ZN32pxrInternal_v0_24__pxrReserved__7TfTokenD2Ev.exit.i.i.i14 ], [ %spec.select.i.i.i.i.i9, %41 ]
  %50 = load ptr, ptr %.08.i.i.i12, align 8
  %51 = ptrtoint ptr %50 to i64
  %52 = and i64 %51, 7
  %.not.i.i.i.i.i13 = icmp eq i64 %52, 0
  br i1 %.not.i.i.i.i.i13, label %_ZN32pxrInternal_v0_24__pxrReserved__7TfTokenD2Ev.exit.i.i.i14, label %53

53:                                               ; preds = %.lr.ph.i.i.i11
  %54 = and i64 %51, -8
  %55 = inttoptr i64 %54 to ptr
  %56 = atomicrmw sub ptr %55, i32 2 release, align 4
  br label %_ZN32pxrInternal_v0_24__pxrReserved__7TfTokenD2Ev.exit.i.i.i14

_ZN32pxrInternal_v0_24__pxrReserved__7TfTokenD2Ev.exit.i.i.i14: ; preds = %53, %.lr.ph.i.i.i11
  %57 = getelementptr inbounds nuw i8, ptr %.08.i.i.i12, i64 8
  %.not.i.i.i15 = icmp eq ptr %57, %49
  br i1 %.not.i.i.i15, label %_ZN32pxrInternal_v0_24__pxrReserved__13TfSmallVectorINS_7TfTokenELj6EE9_DestructEv.exit.loopexit.i.i16, label %.lr.ph.i.i.i11, !llvm.loop !5

_ZN32pxrInternal_v0_24__pxrReserved__13TfSmallVectorINS_7TfTokenELj6EE9_DestructEv.exit.loopexit.i.i16: ; preds = %_ZN32pxrInternal_v0_24__pxrReserved__7TfTokenD2Ev.exit.i.i.i14
  %.pre.i.i17 = load i32, ptr %42, align 4
  br label %_ZN32pxrInternal_v0_24__pxrReserved__13TfSmallVectorINS_7TfTokenELj6EE9_DestructEv.exit.i.i18

_ZN32pxrInternal_v0_24__pxrReserved__13TfSmallVectorINS_7TfTokenELj6EE9_DestructEv.exit.i.i18: ; preds = %_ZN32pxrInternal_v0_24__pxrReserved__13TfSmallVectorINS_7TfTokenELj6EE9_DestructEv.exit.loopexit.i.i16, %41
  %58 = phi i32 [ %.pre.i.i17, %_ZN32pxrInternal_v0_24__pxrReserved__13TfSmallVectorINS_7TfTokenELj6EE9_DestructEv.exit.loopexit.i.i16 ], [ %43, %41 ]
  %59 = icmp ult i32 %58, 7
  br i1 %59, label %_ZN32pxrInternal_v0_24__pxrReserved__19HdDataSourceLocatorD2Ev.exit19, label %60

60:                                               ; preds = %_ZN32pxrInternal_v0_24__pxrReserved__13TfSmallVectorINS_7TfTokenELj6EE9_DestructEv.exit.i.i18
  %61 = load ptr, ptr %4, align 8
  call void @free(ptr noundef %61) #14
  br label %_ZN32pxrInternal_v0_24__pxrReserved__19HdDataSourceLocatorD2Ev.exit19

_ZN32pxrInternal_v0_24__pxrReserved__19HdDataSourceLocatorD2Ev.exit19: ; preds = %_ZN32pxrInternal_v0_24__pxrReserved__13TfSmallVectorINS_7TfTokenELj6EE9_DestructEv.exit.i.i18, %60
  br i1 %40, label %62, label %67

62:                                               ; preds = %_ZN32pxrInternal_v0_24__pxrReserved__19HdDataSourceLocatorD2Ev.exit19
  %63 = load i32, ptr %1, align 4
  %64 = or i32 %63, 2
  store i32 %64, ptr %1, align 4
  br label %67

65:                                               ; preds = %36
  %66 = landingpad { ptr, i32 }
          cleanup
  br label %99

67:                                               ; preds = %62, %_ZN32pxrInternal_v0_24__pxrReserved__19HdDataSourceLocatorD2Ev.exit19
  %68 = call fastcc noundef ptr @_ZNK32pxrInternal_v0_24__pxrReserved__12TfStaticDataIN12_GLOBAL__N_130_tokens_PrivateStaticTokenTypeENS_27Tf_StaticDataDefaultFactoryIS2_EEEptEv()
  %69 = call fastcc noundef ptr @_ZNK32pxrInternal_v0_24__pxrReserved__12TfStaticDataIN12_GLOBAL__N_130_tokens_PrivateStaticTokenTypeENS_27Tf_StaticDataDefaultFactoryIS2_EEEptEv()
  %70 = getelementptr inbounds nuw i8, ptr %69, i64 32
  call void @_ZN32pxrInternal_v0_24__pxrReserved__19HdDataSourceLocatorC1ERKNS_7TfTokenES3_(ptr noundef nonnull align 8 dereferenceable(56) %5, ptr noundef nonnull align 8 dereferenceable(8) %68, ptr noundef nonnull align 8 dereferenceable(8) %70)
  %71 = invoke noundef zeroext i1 @_ZNK32pxrInternal_v0_24__pxrReserved__22HdDataSourceLocatorSet10IntersectsERKNS_19HdDataSourceLocatorE(ptr noundef nonnull align 8 dereferenceable(456) %0, ptr noundef nonnull align 8 dereferenceable(56) %5)
          to label %72 unwind label %96

72:                                               ; preds = %67
  %73 = getelementptr inbounds nuw i8, ptr %5, i64 52
  %74 = load i32, ptr %73, align 4
  %75 = icmp ult i32 %74, 7
  %76 = load ptr, ptr %5, align 8
  %spec.select.i.i.i.i.i20 = select i1 %75, ptr %5, ptr %76
  %77 = getelementptr inbounds nuw i8, ptr %5, i64 48
  %78 = load i32, ptr %77, align 8
  %79 = zext i32 %78 to i64
  %80 = getelementptr inbounds nuw %"class.pxrInternal_v0_24__pxrReserved__::TfToken", ptr %spec.select.i.i.i.i.i20, i64 %79
  %.not7.i.i.i21 = icmp eq i32 %78, 0
  br i1 %.not7.i.i.i21, label %_ZN32pxrInternal_v0_24__pxrReserved__13TfSmallVectorINS_7TfTokenELj6EE9_DestructEv.exit.i.i29, label %.lr.ph.i.i.i22

.lr.ph.i.i.i22:                                   ; preds = %72, %_ZN32pxrInternal_v0_24__pxrReserved__7TfTokenD2Ev.exit.i.i.i25
  %.08.i.i.i23 = phi ptr [ %88, %_ZN32pxrInternal_v0_24__pxrReserved__7TfTokenD2Ev.exit.i.i.i25 ], [ %spec.select.i.i.i.i.i20, %72 ]
  %81 = load ptr, ptr %.08.i.i.i23, align 8
  %82 = ptrtoint ptr %81 to i64
  %83 = and i64 %82, 7
  %.not.i.i.i.i.i24 = icmp eq i64 %83, 0
  br i1 %.not.i.i.i.i.i24, label %_ZN32pxrInternal_v0_24__pxrReserved__7TfTokenD2Ev.exit.i.i.i25, label %84

84:                                               ; preds = %.lr.ph.i.i.i22
  %85 = and i64 %82, -8
  %86 = inttoptr i64 %85 to ptr
  %87 = atomicrmw sub ptr %86, i32 2 release, align 4
  br label %_ZN32pxrInternal_v0_24__pxrReserved__7TfTokenD2Ev.exit.i.i.i25

_ZN32pxrInternal_v0_24__pxrReserved__7TfTokenD2Ev.exit.i.i.i25: ; preds = %84, %.lr.ph.i.i.i22
  %88 = getelementptr inbounds nuw i8, ptr %.08.i.i.i23, i64 8
  %.not.i.i.i26 = icmp eq ptr %88, %80
  br i1 %.not.i.i.i26, label %_ZN32pxrInternal_v0_24__pxrReserved__13TfSmallVectorINS_7TfTokenELj6EE9_DestructEv.exit.loopexit.i.i27, label %.lr.ph.i.i.i22, !llvm.loop !5

_ZN32pxrInternal_v0_24__pxrReserved__13TfSmallVectorINS_7TfTokenELj6EE9_DestructEv.exit.loopexit.i.i27: ; preds = %_ZN32pxrInternal_v0_24__pxrReserved__7TfTokenD2Ev.exit.i.i.i25
  %.pre.i.i28 = load i32, ptr %73, align 4
  br label %_ZN32pxrInternal_v0_24__pxrReserved__13TfSmallVectorINS_7TfTokenELj6EE9_DestructEv.exit.i.i29

_ZN32pxrInternal_v0_24__pxrReserved__13TfSmallVectorINS_7TfTokenELj6EE9_DestructEv.exit.i.i29: ; preds = %_ZN32pxrInternal_v0_24__pxrReserved__13TfSmallVectorINS_7TfTokenELj6EE9_DestructEv.exit.loopexit.i.i27, %72
  %89 = phi i32 [ %.pre.i.i28, %_ZN32pxrInternal_v0_24__pxrReserved__13TfSmallVectorINS_7TfTokenELj6EE9_DestructEv.exit.loopexit.i.i27 ], [ %74, %72 ]
  %90 = icmp ult i32 %89, 7
  br i1 %90, label %_ZN32pxrInternal_v0_24__pxrReserved__19HdDataSourceLocatorD2Ev.exit30, label %91

91:                                               ; preds = %_ZN32pxrInternal_v0_24__pxrReserved__13TfSmallVectorINS_7TfTokenELj6EE9_DestructEv.exit.i.i29
  %92 = load ptr, ptr %5, align 8
  call void @free(ptr noundef %92) #14
  br label %_ZN32pxrInternal_v0_24__pxrReserved__19HdDataSourceLocatorD2Ev.exit30

_ZN32pxrInternal_v0_24__pxrReserved__19HdDataSourceLocatorD2Ev.exit30: ; preds = %_ZN32pxrInternal_v0_24__pxrReserved__13TfSmallVectorINS_7TfTokenELj6EE9_DestructEv.exit.i.i29, %91
  br i1 %71, label %93, label %98

93:                                               ; preds = %_ZN32pxrInternal_v0_24__pxrReserved__19HdDataSourceLocatorD2Ev.exit30
  %94 = load i32, ptr %1, align 4
  %95 = or i32 %94, 4
  store i32 %95, ptr %1, align 4
  br label %98

96:                                               ; preds = %67
  %97 = landingpad { ptr, i32 }
          cleanup
  br label %99

98:                                               ; preds = %93, %_ZN32pxrInternal_v0_24__pxrReserved__19HdDataSourceLocatorD2Ev.exit30
  ret void

99:                                               ; preds = %96, %65, %34
  %.sink = phi ptr [ %5, %96 ], [ %4, %65 ], [ %3, %34 ]
  %.pn = phi { ptr, i32 } [ %97, %96 ], [ %66, %65 ], [ %35, %34 ]
  call void @_ZN32pxrInternal_v0_24__pxrReserved__19HdDataSourceLocatorD2Ev(ptr noundef nonnull align 8 dereferenceable(56) %.sink) #14
  resume { ptr, i32 } %.pn
}